

Microchip Technology PIC LITE Macro Assembler V1.12 build 49521 
                                                                                               Tue Dec 11 19:32:25 2012

HI-TECH Software Omniscient Code Generator (Lite mode) build 49521
     1  0000                     opt subtitle "HI-TECH Software Omniscient Code Generator (Lite mode) build 49521"
     2                           opt subtitle "HI-TECH Software Omniscient Code Generator (Lite mode) build 49521"
     3                           
     4                           opt pagewidth 120
     5                           
     6                           	opt lm
     7                           
     8                           	processor	12F675
     9                           clrc	macro
    10  0000                     	endm
    11                           opt subtitle "HI-TECH Software Omniscient Code Generator (Lite mode) build 49521"
    12                           
    13  0000                     	endm
    14                           opt subtitle "HI-TECH Software Omniscient Code Generator (Lite mode) build 49521"
    15                           
    16  0000                     	endm
    17                           opt subtitle "HI-TECH Software Omniscient Code Generator (Lite mode) build 49521"
    18                           
    19  0000                     	endm
    20                           opt subtitle "HI-TECH Software Omniscient Code Generator (Lite mode) build 49521"
    21                           
    22  0000                     	endm
    23                           opt subtitle "HI-TECH Software Omniscient Code Generator (Lite mode) build 49521"
    24                           
    25  0000                     	endm
    26                           opt subtitle "HI-TECH Software Omniscient Code Generator (Lite mode) build 49521"
    27                           
    28  0000                     	endm
    29                           opt subtitle "HI-TECH Software Omniscient Code Generator (Lite mode) build 49521"
    30                           
    31  0000                     	endm
    32  0000                     indf	equ	0
    33  0000                     indf0	equ	0
    34  0002                     pc	equ	2
    35  0002                     pcl	equ	2
    36  0003                     status	equ	3
    37  0004                     fsr	equ	4
    38  0004                     fsr0	equ	4
    39  0001                     c	equ	1
    40  0000                     z	equ	0
    41  000A                     pclath	equ	10
    42                           opt subtitle "HI-TECH Software Omniscient Code Generator (Lite mode) build 49521"
    43  0000                     INDF equ 00h ;# 
    44                           opt subtitle "HI-TECH Software Omniscient Code Generator (Lite mode) build 49521"
    45  0001                     TMR0 equ 01h ;# 
    46                           opt subtitle "HI-TECH Software Omniscient Code Generator (Lite mode) build 49521"
    47  0002                     PCL equ 02h ;# 
    48                           opt subtitle "HI-TECH Software Omniscient Code Generator (Lite mode) build 49521"
    49  0003                     STATUS equ 03h ;# 
    50                           opt subtitle "HI-TECH Software Omniscient Code Generator (Lite mode) build 49521"
    51  0004                     FSR equ 04h ;# 
    52                           opt subtitle "HI-TECH Software Omniscient Code Generator (Lite mode) build 49521"
    53  0005                     GPIO equ 05h ;# 
    54                           opt subtitle "HI-TECH Software Omniscient Code Generator (Lite mode) build 49521"
    55  000A                     PCLATH equ 0Ah ;# 
    56                           opt subtitle "HI-TECH Software Omniscient Code Generator (Lite mode) build 49521"
    57  000B                     INTCON equ 0Bh ;# 
    58                           opt subtitle "HI-TECH Software Omniscient Code Generator (Lite mode) build 49521"
    59  000C                     PIR1 equ 0Ch ;# 
    60                           opt subtitle "HI-TECH Software Omniscient Code Generator (Lite mode) build 49521"
    61  000E                     TMR1 equ 0Eh ;# 
    62                           opt subtitle "HI-TECH Software Omniscient Code Generator (Lite mode) build 49521"
    63  000E                     TMR1L equ 0Eh ;# 
    64                           opt subtitle "HI-TECH Software Omniscient Code Generator (Lite mode) build 49521"
    65  000F                     TMR1H equ 0Fh ;# 
    66                           opt subtitle "HI-TECH Software Omniscient Code Generator (Lite mode) build 49521"
    67  0010                     T1CON equ 010h ;# 
    68                           opt subtitle "HI-TECH Software Omniscient Code Generator (Lite mode) build 49521"
    69  0019                     CMCON equ 019h ;# 
    70                           opt subtitle "HI-TECH Software Omniscient Code Generator (Lite mode) build 49521"
    71  001E                     ADRESH equ 01Eh ;# 
    72                           opt subtitle "HI-TECH Software Omniscient Code Generator (Lite mode) build 49521"
    73  001F                     ADCON0 equ 01Fh ;# 
    74                           opt subtitle "HI-TECH Software Omniscient Code Generator (Lite mode) build 49521"
    75  0081                     OPTION_REG equ 081h ;# 
    76                           opt subtitle "HI-TECH Software Omniscient Code Generator (Lite mode) build 49521"
    77  0085                     TRISIO equ 085h ;# 
    78                           opt subtitle "HI-TECH Software Omniscient Code Generator (Lite mode) build 49521"
    79  008C                     PIE1 equ 08Ch ;# 
    80                           opt subtitle "HI-TECH Software Omniscient Code Generator (Lite mode) build 49521"
    81  008E                     PCON equ 08Eh ;# 
    82                           opt subtitle "HI-TECH Software Omniscient Code Generator (Lite mode) build 49521"
    83  0090                     OSCCAL equ 090h ;# 
    84                           opt subtitle "HI-TECH Software Omniscient Code Generator (Lite mode) build 49521"
    85  0095                     WPU equ 095h ;# 
    86                           opt subtitle "HI-TECH Software Omniscient Code Generator (Lite mode) build 49521"
    87  0096                     IOC equ 096h ;# 
    88                           opt subtitle "HI-TECH Software Omniscient Code Generator (Lite mode) build 49521"
    89  0096                     IOCB equ 096h ;# 
    90                           opt subtitle "HI-TECH Software Omniscient Code Generator (Lite mode) build 49521"
    91  0099                     VRCON equ 099h ;# 
    92                           opt subtitle "HI-TECH Software Omniscient Code Generator (Lite mode) build 49521"
    93  009A                     EEDATA equ 09Ah ;# 
    94                           opt subtitle "HI-TECH Software Omniscient Code Generator (Lite mode) build 49521"
    95  009A                     EEDAT equ 09Ah ;# 
    96                           opt subtitle "HI-TECH Software Omniscient Code Generator (Lite mode) build 49521"
    97  009B                     EEADR equ 09Bh ;# 
    98                           opt subtitle "HI-TECH Software Omniscient Code Generator (Lite mode) build 49521"
    99  009C                     EECON1 equ 09Ch ;# 
   100                           opt subtitle "HI-TECH Software Omniscient Code Generator (Lite mode) build 49521"
   101  009D                     EECON2 equ 09Dh ;# 
   102                           opt subtitle "HI-TECH Software Omniscient Code Generator (Lite mode) build 49521"
   103  009E                     ADRESL equ 09Eh ;# 
   104                           opt subtitle "HI-TECH Software Omniscient Code Generator (Lite mode) build 49521"
   105  009F                     ANSEL equ 09Fh ;# 
   106                           opt subtitle "HI-TECH Software Omniscient Code Generator (Lite mode) build 49521"
   107                           
   108                           opt pagewidth 120
   109                           
   110                           	opt lm
   111                           
   112                           	processor	12F675
   113                           clrc	macro
   114                           	bcf	3,0
   115                           	endm
   116                           clrz	macro
   117                           	bcf	3,2
   118                           	endm
   119                           setc	macro
   120                           	bsf	3,0
   121                           	endm
   122                           setz	macro
   123                           	bsf	3,2
   124  000E                     _TMR1	set	0xE
   125                           opt subtitle "HI-TECH Software Omniscient Code Generator (Lite mode) build 49521"
   126  005F                     _GIE	set	0x5F
   127                           opt subtitle "HI-TECH Software Omniscient Code Generator (Lite mode) build 49521"
   128  0029                     _GPIO1	set	0x29
   129                           opt subtitle "HI-TECH Software Omniscient Code Generator (Lite mode) build 49521"
   130  005C                     _INTE	set	0x5C
   131                           opt subtitle "HI-TECH Software Omniscient Code Generator (Lite mode) build 49521"
   132  0059                     _INTF	set	0x59
   133                           opt subtitle "HI-TECH Software Omniscient Code Generator (Lite mode) build 49521"
   134  005E                     _PEIE	set	0x5E
   135                           opt subtitle "HI-TECH Software Omniscient Code Generator (Lite mode) build 49521"
   136  0084                     _T1CKPS0	set	0x84
   137                           opt subtitle "HI-TECH Software Omniscient Code Generator (Lite mode) build 49521"
   138  0085                     _T1CKPS1	set	0x85
   139                           opt subtitle "HI-TECH Software Omniscient Code Generator (Lite mode) build 49521"
   140  0081                     _TMR1CS	set	0x81
   141                           opt subtitle "HI-TECH Software Omniscient Code Generator (Lite mode) build 49521"
   142  0086                     _TMR1GE	set	0x86
   143                           opt subtitle "HI-TECH Software Omniscient Code Generator (Lite mode) build 49521"
   144  0060                     _TMR1IF	set	0x60
   145                           opt subtitle "HI-TECH Software Omniscient Code Generator (Lite mode) build 49521"
   146  0080                     _TMR1ON	set	0x80
   147                           opt subtitle "HI-TECH Software Omniscient Code Generator (Lite mode) build 49521"
   148  009F                     _ANSEL	set	0x9F
   149                           opt subtitle "HI-TECH Software Omniscient Code Generator (Lite mode) build 49521"
   150  0095                     _WPU	set	0x95
   151                           opt subtitle "HI-TECH Software Omniscient Code Generator (Lite mode) build 49521"
   152  040E                     _INTEDG	set	0x40E
   153                           opt subtitle "HI-TECH Software Omniscient Code Generator (Lite mode) build 49521"
   154  040B                     _PSA	set	0x40B
   155                           opt subtitle "HI-TECH Software Omniscient Code Generator (Lite mode) build 49521"
   156  0460                     _TMR1IE	set	0x460
   157                           opt subtitle "HI-TECH Software Omniscient Code Generator (Lite mode) build 49521"
   158  0429                     _TRISIO1	set	0x429
   159                           opt subtitle "HI-TECH Software Omniscient Code Generator (Lite mode) build 49521"
   160  042A                     _TRISIO2	set	0x42A
   161                           opt subtitle "HI-TECH Software Omniscient Code Generator (Lite mode) build 49521"
   162  0470                     _nBOD	set	0x470
   163                           opt subtitle "HI-TECH Software Omniscient Code Generator (Lite mode) build 49521"
   164  0470                     _nBOR	set	0x470
   165                           opt subtitle "HI-TECH Software Omniscient Code Generator (Lite mode) build 49521"
   166  040F                     _nGPPU	set	0x40F
   167                           opt subtitle "HI-TECH Software Omniscient Code Generator (Lite mode) build 49521"
   168  0471                     _nPOR	set	0x471
   169                           opt subtitle "HI-TECH Software Omniscient Code Generator (Lite mode) build 49521"
   170                           
   171  0000                     __ptext133:	;psect for function i1_reset
   172                           opt subtitle "HI-TECH Software Omniscient Code Generator (Lite mode) build 49521"
   173                           
   174  0000                     __CFG_BOREN$OFF equ 0x0
   175                           opt subtitle "HI-TECH Software Omniscient Code Generator (Lite mode) build 49521"
   176  0000                     __CFG_CPD$OFF equ 0x0
   177                           opt subtitle "HI-TECH Software Omniscient Code Generator (Lite mode) build 49521"
   178  0000                     __CFG_FOSC$HS equ 0x0
   179                           opt subtitle "HI-TECH Software Omniscient Code Generator (Lite mode) build 49521"
   180  0000                     __CFG_WDTE$OFF equ 0x0
   181                           opt subtitle "HI-TECH Software Omniscient Code Generator (Lite mode) build 49521"
   182  0000                     __CFG_CP$OFF equ 0x0
   183                           opt subtitle "HI-TECH Software Omniscient Code Generator (Lite mode) build 49521"
   184  0000                     __CFG_PWRTE$ON equ 0x0
   185                           opt subtitle "HI-TECH Software Omniscient Code Generator (Lite mode) build 49521"
   186                           
   187                           opt pagewidth 120
   188                           
   189  0110                     start_initialization:
   190                           opt subtitle "HI-TECH Software Omniscient Code Generator (Lite mode) build 49521"
   191                           
   192  0110                     __initialization:
   193                           opt subtitle "HI-TECH Software Omniscient Code Generator (Lite mode) build 49521"
   194                           
   195  002A                     __pbssBANK0:
   196  002A                     _count:
   197  002A                            ds      4
   198                           opt subtitle "HI-TECH Software Omniscient Code Generator (Lite mode) build 49521"
   199                           
   200                           opt pagewidth 120
   201  0110  01AA               	clrf	((__pbssBANK0)+0)&07Fh
   202  0111  01AB               	clrf	((__pbssBANK0)+1)&07Fh
   203  0112  01AC               	clrf	((__pbssBANK0)+2)&07Fh
   204  0113  01AD               	clrf	((__pbssBANK0)+3)&07Fh
   205                           opt subtitle "HI-TECH Software Omniscient Code Generator (Lite mode) build 49521"
   206                           
   207                           opt pagewidth 120
   208                           
   209                           	opt lm
   210  0114                     end_of_initialization:
   211  0114                     __end_of__initialization:clrf status
      + 0114  0183               	clrf	3
   212  0115  2909               ljmp _main	;jump to C main() function
   213                           opt subtitle "HI-TECH Software Omniscient Code Generator (Lite mode) build 49521"
   214                           
   215  0020                     __pcstackBANK0:
   216  0020                     ?_config:	; 0 bytes @ 0x0
   217  0020                     ?_start:	; 0 bytes @ 0x0
   218  0020                     ?_idle_loop:	; 0 bytes @ 0x0
   219  0020                     ?_stop:	; 0 bytes @ 0x0
   220  0020                     ?_reset:	; 0 bytes @ 0x0
   221  0020                     ?_blink:	; 0 bytes @ 0x0
   222  0020                     ??_blink:	; 0 bytes @ 0x0
   223  0020                     ?_ISR:	; 0 bytes @ 0x0
   224  0020                     ?i1_start:	; 0 bytes @ 0x0
   225  0020                     ??i1_start:	; 0 bytes @ 0x0
   226  0020                     ?i1_stop:	; 0 bytes @ 0x0
   227  0020                     ??i1_stop:	; 0 bytes @ 0x0
   228  0020                     ?i1_reset:	; 0 bytes @ 0x0
   229  0020                     ??i1_reset:	; 0 bytes @ 0x0
   230  0020                     ?i1_idle_loop:	; 0 bytes @ 0x0
   231  0020                     ??i1_idle_loop:	; 0 bytes @ 0x0
   232                           opt subtitle "HI-TECH Software Omniscient Code Generator (Lite mode) build 49521"
   233  0020                     blink@tmp:	; 2 bytes @ 0x0
   234  0020                     	ds	2
   235  0022                     ??_ISR:	; 0 bytes @ 0x2
   236  0022                     	ds	4
   237  0026                     ??_config:	; 0 bytes @ 0x6
   238  0026                     ??_start:	; 0 bytes @ 0x6
   239  0026                     ??_idle_loop:	; 0 bytes @ 0x6
   240  0026                     ??_stop:	; 0 bytes @ 0x6
   241  0026                     ??_reset:	; 0 bytes @ 0x6
   242  0026                     ?_main:	; 2 bytes @ 0x6
   243  0026                     main@argc:	; 2 bytes @ 0x6
   244  0026                     	ds	2
   245  0028                     main@argv:	; 2 bytes @ 0x8
   246  0028                     	ds	2
   247  002A                     ??_main:	; 0 bytes @ 0xA
   248                           opt subtitle "HI-TECH Software Omniscient Code Generator (Lite mode) build 49521"
   249                           
   250                           opt pagewidth 120
   251                           
   252                           	opt lm
   253                           
   254                           	processor	12F675
   255                           clrc	macro
   256                           	bcf	3,0
   257                           	endm
   258                           clrz	macro
   259                           	bcf	3,2
   260                           	endm
   261                           setc	macro
   262                           	bsf	3,0
   263                           	endm
   264                           setz	macro
   265                           	bsf	3,2
   266                           	endm
   267                           skipc	macro
   268                           	btfss	3,0
   269                           	endm
   270                           skipz	macro
   271                           	btfss	3,2
   272                           	endm
   273                           skipnc	macro
   274                           	btfsc	3,0
   275                           	endm
   276                           skipnz	macro
   277                           	btfsc	3,2
   278                           	endm
   279                           indf	equ	0
   280                           indf0	equ	0
   281                           pc	equ	2
   282                           pcl	equ	2
   283                           status	equ	3
   284                           fsr	equ	4
   285                           fsr0	equ	4
   286                           c	equ	1
   287                           z	equ	0
   288                           pclath	equ	10
   289                           # 46 "/opt/microchip/xc8/v1.12/include/pic12f675.h"
   290                           INDF equ 00h ;# 
   291                           # 65 "/opt/microchip/xc8/v1.12/include/pic12f675.h"
   292                           TMR0 equ 01h ;# 
   293                           # 84 "/opt/microchip/xc8/v1.12/include/pic12f675.h"
   294                           PCL equ 02h ;# 
   295                           # 103 "/opt/microchip/xc8/v1.12/include/pic12f675.h"
   296                           STATUS equ 03h ;# 
   297                           # 190 "/opt/microchip/xc8/v1.12/include/pic12f675.h"
   298                           FSR equ 04h ;# 
   299                           # 209 "/opt/microchip/xc8/v1.12/include/pic12f675.h"
   300                           GPIO equ 05h ;# 
   301                           # 296 "/opt/microchip/xc8/v1.12/include/pic12f675.h"
   302                           PCLATH equ 0Ah ;# 
   303                           # 315 "/opt/microchip/xc8/v1.12/include/pic12f675.h"
   304                           INTCON equ 0Bh ;# 
   305                           # 392 "/opt/microchip/xc8/v1.12/include/pic12f675.h"
   306                           PIR1 equ 0Ch ;# 
   307                           # 439 "/opt/microchip/xc8/v1.12/include/pic12f675.h"
   308                           TMR1 equ 0Eh ;# 
   309                           # 445 "/opt/microchip/xc8/v1.12/include/pic12f675.h"
   310                           TMR1L equ 0Eh ;# 
   311                           # 464 "/opt/microchip/xc8/v1.12/include/pic12f675.h"
   312                           TMR1H equ 0Fh ;# 
   313                           # 483 "/opt/microchip/xc8/v1.12/include/pic12f675.h"
   314                           T1CON equ 010h ;# 
   315                           # 547 "/opt/microchip/xc8/v1.12/include/pic12f675.h"
   316                           CMCON equ 019h ;# 
   317                           # 605 "/opt/microchip/xc8/v1.12/include/pic12f675.h"
   318                           ADRESH equ 01Eh ;# 
   319                           # 624 "/opt/microchip/xc8/v1.12/include/pic12f675.h"
   320                           ADCON0 equ 01Fh ;# 
   321                           # 707 "/opt/microchip/xc8/v1.12/include/pic12f675.h"
   322                           OPTION_REG equ 081h ;# 
   323                           # 776 "/opt/microchip/xc8/v1.12/include/pic12f675.h"
   324                           TRISIO equ 085h ;# 
   325                           # 825 "/opt/microchip/xc8/v1.12/include/pic12f675.h"
   326                           PIE1 equ 08Ch ;# 
   327                           # 872 "/opt/microchip/xc8/v1.12/include/pic12f675.h"
   328                           PCON equ 08Eh ;# 
   329                           # 905 "/opt/microchip/xc8/v1.12/include/pic12f675.h"
   330                           OSCCAL equ 090h ;# 
   331                           # 964 "/opt/microchip/xc8/v1.12/include/pic12f675.h"
   332                           WPU equ 095h ;# 
   333                           # 1008 "/opt/microchip/xc8/v1.12/include/pic12f675.h"
   334                           IOC equ 096h ;# 
   335                           # 1013 "/opt/microchip/xc8/v1.12/include/pic12f675.h"
   336                           IOCB equ 096h ;# 
   337                           # 1181 "/opt/microchip/xc8/v1.12/include/pic12f675.h"
   338                           VRCON equ 099h ;# 
   339                           # 1240 "/opt/microchip/xc8/v1.12/include/pic12f675.h"
   340                           EEDATA equ 09Ah ;# 
   341                           # 1245 "/opt/microchip/xc8/v1.12/include/pic12f675.h"
   342                           EEDAT equ 09Ah ;# 
   343                           # 1277 "/opt/microchip/xc8/v1.12/include/pic12f675.h"
   344                           EEADR equ 09Bh ;# 
   345                           # 1296 "/opt/microchip/xc8/v1.12/include/pic12f675.h"
   346                           EECON1 equ 09Ch ;# 
   347                           # 1333 "/opt/microchip/xc8/v1.12/include/pic12f675.h"
   348                           EECON2 equ 09Dh ;# 
   349                           # 1352 "/opt/microchip/xc8/v1.12/include/pic12f675.h"
   350                           ADRESL equ 09Eh ;# 
   351                           # 1371 "/opt/microchip/xc8/v1.12/include/pic12f675.h"
   352                           ANSEL equ 09Fh ;# 
   353                           	FNCALL	_main,_config
   354                           	FNCALL	_main,_start
   355                           	FNCALL	_main,_idle_loop
   356                           	FNCALL	_start,_stop
   357                           	FNCALL	_start,_reset
   358                           	FNROOT	_main
   359                           	FNCALL	_ISR,i1_idle_loop
   360                           	FNCALL	_ISR,i1_stop
   361                           	FNCALL	_ISR,i1_reset
   362                           	FNCALL	_ISR,_blink
   363                           	FNCALL	_ISR,i1_start
   364                           	FNCALL	i1_start,i1_stop
   365                           	FNCALL	i1_start,i1_reset
   366                           	FNCALL	intlevel1,_ISR
   367                           	global	intlevel1
   368                           	FNROOT	intlevel1
   369                           	global	_count
   370                           	global	_TMR1
   371                           _TMR1	set	0xE
   372                           	global	_GIE
   373                           _GIE	set	0x5F
   374                           	global	_GPIO1
   375                           _GPIO1	set	0x29
   376                           	global	_INTE
   377                           _INTE	set	0x5C
   378                           	global	_INTF
   379                           _INTF	set	0x59
   380                           	global	_PEIE
   381                           _PEIE	set	0x5E
   382                           	global	_T1CKPS0
   383                           _T1CKPS0	set	0x84
   384                           	global	_T1CKPS1
   385                           _T1CKPS1	set	0x85
   386                           	global	_TMR1CS
   387                           _TMR1CS	set	0x81
   388                           	global	_TMR1GE
   389                           _TMR1GE	set	0x86
   390                           	global	_TMR1IF
   391                           _TMR1IF	set	0x60
   392                           	global	_TMR1ON
   393                           _TMR1ON	set	0x80
   394                           	global	_ANSEL
   395                           _ANSEL	set	0x9F
   396                           	global	_WPU
   397                           _WPU	set	0x95
   398                           	global	_INTEDG
   399                           _INTEDG	set	0x40E
   400                           	global	_PSA
   401                           _PSA	set	0x40B
   402  0109                     __pmaintext:	;psect for function _main
   403                           opt subtitle "HI-TECH Software Omniscient Code Generator (Lite mode) build 49521"
   404                           
   405                           opt pagewidth 120
   406                           
   407  0007                     	__size_of_main	equ	__end_of_main-_main
   408                           opt subtitle "HI-TECH Software Omniscient Code Generator (Lite mode) build 49521"
   409  0109                     _main:	
   410                           opt subtitle "HI-TECH Software Omniscient Code Generator (Lite mode) build 49521"
   411                           
   412                           opt pagewidth 120
   413                           
   414  0109                     l560:	
   415                           opt subtitle "HI-TECH Software Omniscient Code Generator (Lite mode) build 49521"
   416  0109  0000               nop ;# 
   417                           opt subtitle "HI-TECH Software Omniscient Code Generator (Lite mode) build 49521"
   418                           
   419                           opt pagewidth 120
   420                           
   421  010A                     l61:	
   422                           opt subtitle "HI-TECH Software Omniscient Code Generator (Lite mode) build 49521"
   423  010A                     l62:	
   424  010A  290A               	goto	l61
   425                           opt subtitle "HI-TECH Software Omniscient Code Generator (Lite mode) build 49521"
   426  010B                     l63:	
   427                           opt subtitle "HI-TECH Software Omniscient Code Generator (Lite mode) build 49521"
   428                           
   429  010B                     l562:	
   430                           opt subtitle "HI-TECH Software Omniscient Code Generator (Lite mode) build 49521"
   431  010B  20CF               	fcall	_config
   432                           opt subtitle "HI-TECH Software Omniscient Code Generator (Lite mode) build 49521"
   433                           
   434  010C  2116               	fcall	_start
   435                           opt subtitle "HI-TECH Software Omniscient Code Generator (Lite mode) build 49521"
   436                           
   437  010D  2126               	fcall	_idle_loop
   438  010E  290F               	goto	l64
   439                           opt subtitle "HI-TECH Software Omniscient Code Generator (Lite mode) build 49521"
   440                           
   441  010F                     l564:	
   442                           opt subtitle "HI-TECH Software Omniscient Code Generator (Lite mode) build 49521"
   443                           
   444                           opt pagewidth 120
   445                           
   446  010F                     l64:	
   447                           opt subtitle "HI-TECH Software Omniscient Code Generator (Lite mode) build 49521"
   448  010F  280F               	ljmp	start
   449                           opt subtitle "HI-TECH Software Omniscient Code Generator (Lite mode) build 49521"
   450                           
   451  0110                     	__end_of_main:
   452                           opt subtitle "HI-TECH Software Omniscient Code Generator (Lite mode) build 49521"
   453                           
   454                           opt pagewidth 120
   455                           
   456                           	opt lm
   457                           
   458                           	processor	12F675
   459                           clrc	macro
   460                           	bcf	3,0
   461                           	endm
   462                           clrz	macro
   463                           	bcf	3,2
   464                           	endm
   465                           setc	macro
   466                           	bsf	3,0
   467                           	endm
   468                           setz	macro
   469                           	bsf	3,2
   470                           	endm
   471                           skipc	macro
   472                           	btfss	3,0
   473                           	endm
   474                           skipz	macro
   475                           	btfss	3,2
   476                           	endm
   477                           skipnc	macro
   478                           	btfsc	3,0
   479                           	endm
   480                           skipnz	macro
   481                           	btfsc	3,2
   482                           	endm
   483                           indf	equ	0
   484                           indf0	equ	0
   485                           pc	equ	2
   486  00CF                     __ptext134:	;psect for function _config
   487                           opt subtitle "HI-TECH Software Omniscient Code Generator (Lite mode) build 49521"
   488                           
   489                           opt pagewidth 120
   490                           
   491  001E                     	__size_of_config	equ	__end_of_config-_config
   492                           opt subtitle "HI-TECH Software Omniscient Code Generator (Lite mode) build 49521"
   493  00CF                     _config:	
   494                           opt subtitle "HI-TECH Software Omniscient Code Generator (Lite mode) build 49521"
   495                           
   496                           opt pagewidth 120
   497                           
   498  00CF                     l566:	
   499                           opt subtitle "HI-TECH Software Omniscient Code Generator (Lite mode) build 49521"
   500  00CF  1683               	bsf	status, 5	;RP0=1, select bank1
   501  00D0  148E               	bsf	(1137/8)^080h,(1137)&7	;volatile
   502                           opt subtitle "HI-TECH Software Omniscient Code Generator (Lite mode) build 49521"
   503                           
   504  00D1  140E               	bsf	(1136/8)^080h,(1136)&7	;volatile
   505                           opt subtitle "HI-TECH Software Omniscient Code Generator (Lite mode) build 49521"
   506                           
   507  00D2  140E               	bsf	(1136/8)^080h,(1136)&7	;volatile
   508                           opt subtitle "HI-TECH Software Omniscient Code Generator (Lite mode) build 49521"
   509                           
   510  00D3                     l568:	
   511                           opt subtitle "HI-TECH Software Omniscient Code Generator (Lite mode) build 49521"
   512  00D3  019F               	clrf	(159)^080h	;volatile
   513                           opt subtitle "HI-TECH Software Omniscient Code Generator (Lite mode) build 49521"
   514                           
   515  00D4                     l570:	
   516                           opt subtitle "HI-TECH Software Omniscient Code Generator (Lite mode) build 49521"
   517  00D4  1581               	bsf	(1035/8)^080h,(1035)&7	;volatile
   518                           opt subtitle "HI-TECH Software Omniscient Code Generator (Lite mode) build 49521"
   519                           
   520  00D5                     l572:	
   521                           opt subtitle "HI-TECH Software Omniscient Code Generator (Lite mode) build 49521"
   522  00D5  1283               	bcf	status, 5	;RP0=0, select bank0
   523  00D6  1310               	bcf	(134/8),(134)&7	;volatile
   524                           opt subtitle "HI-TECH Software Omniscient Code Generator (Lite mode) build 49521"
   525                           
   526  00D7                     l574:	
   527                           opt subtitle "HI-TECH Software Omniscient Code Generator (Lite mode) build 49521"
   528  00D7  1690               	bsf	(133/8),(133)&7	;volatile
   529                           opt subtitle "HI-TECH Software Omniscient Code Generator (Lite mode) build 49521"
   530                           
   531  00D8                     l576:	
   532                           opt subtitle "HI-TECH Software Omniscient Code Generator (Lite mode) build 49521"
   533  00D8  1610               	bsf	(132/8),(132)&7	;volatile
   534                           opt subtitle "HI-TECH Software Omniscient Code Generator (Lite mode) build 49521"
   535                           
   536  00D9                     l578:	
   537                           opt subtitle "HI-TECH Software Omniscient Code Generator (Lite mode) build 49521"
   538  00D9  1090               	bcf	(129/8),(129)&7	;volatile
   539                           opt subtitle "HI-TECH Software Omniscient Code Generator (Lite mode) build 49521"
   540                           
   541  00DA  018E               	clrf	(14)	;volatile
   542  00DB  018F               	clrf	(14+1)	;volatile
   543                           opt subtitle "HI-TECH Software Omniscient Code Generator (Lite mode) build 49521"
   544                           
   545  00DC                     l580:	
   546                           opt subtitle "HI-TECH Software Omniscient Code Generator (Lite mode) build 49521"
   547  00DC  1683               	bsf	status, 5	;RP0=1, select bank1
   548  00DD  1505               	bsf	(1066/8)^080h,(1066)&7	;volatile
   549                           opt subtitle "HI-TECH Software Omniscient Code Generator (Lite mode) build 49521"
   550                           
   551  00DE                     l582:	
   552                           opt subtitle "HI-TECH Software Omniscient Code Generator (Lite mode) build 49521"
   553  00DE  1085               	bcf	(1065/8)^080h,(1065)&7	;volatile
   554                           opt subtitle "HI-TECH Software Omniscient Code Generator (Lite mode) build 49521"
   555                           
   556  00DF                     l584:	
   557                           opt subtitle "HI-TECH Software Omniscient Code Generator (Lite mode) build 49521"
   558  00DF  1381               	bcf	(1039/8)^080h,(1039)&7	;volatile
   559                           opt subtitle "HI-TECH Software Omniscient Code Generator (Lite mode) build 49521"
   560                           
   561  00E0                     l586:	
   562                           opt subtitle "HI-TECH Software Omniscient Code Generator (Lite mode) build 49521"
   563  00E0  3037               	movlw	(037h)
   564  00E1  0095               	movwf	(149)^080h	;volatile
   565                           opt subtitle "HI-TECH Software Omniscient Code Generator (Lite mode) build 49521"
   566                           
   567  00E2                     l588:	
   568                           opt subtitle "HI-TECH Software Omniscient Code Generator (Lite mode) build 49521"
   569  00E2  178B               	bsf	(95/8),(95)&7	;volatile
   570                           opt subtitle "HI-TECH Software Omniscient Code Generator (Lite mode) build 49521"
   571                           
   572  00E3                     l590:	
   573                           opt subtitle "HI-TECH Software Omniscient Code Generator (Lite mode) build 49521"
   574  00E3  170B               	bsf	(94/8),(94)&7	;volatile
   575                           opt subtitle "HI-TECH Software Omniscient Code Generator (Lite mode) build 49521"
   576                           
   577  00E4                     l592:	
   578                           opt subtitle "HI-TECH Software Omniscient Code Generator (Lite mode) build 49521"
   579  00E4  1283               	bcf	status, 5	;RP0=0, select bank0
   580  00E5  100C               	bcf	(96/8),(96)&7	;volatile
   581                           opt subtitle "HI-TECH Software Omniscient Code Generator (Lite mode) build 49521"
   582                           
   583  00E6                     l594:	
   584                           opt subtitle "HI-TECH Software Omniscient Code Generator (Lite mode) build 49521"
   585  00E6  1683               	bsf	status, 5	;RP0=1, select bank1
   586  00E7  140C               	bsf	(1120/8)^080h,(1120)&7	;volatile
   587                           opt subtitle "HI-TECH Software Omniscient Code Generator (Lite mode) build 49521"
   588                           
   589  00E8                     l596:	
   590                           opt subtitle "HI-TECH Software Omniscient Code Generator (Lite mode) build 49521"
   591  00E8  108B               	bcf	(89/8),(89)&7	;volatile
   592                           opt subtitle "HI-TECH Software Omniscient Code Generator (Lite mode) build 49521"
   593                           
   594  00E9                     l598:	
   595                           opt subtitle "HI-TECH Software Omniscient Code Generator (Lite mode) build 49521"
   596  00E9  160B               	bsf	(92/8),(92)&7	;volatile
   597                           opt subtitle "HI-TECH Software Omniscient Code Generator (Lite mode) build 49521"
   598                           
   599  00EA                     l600:	
   600                           opt subtitle "HI-TECH Software Omniscient Code Generator (Lite mode) build 49521"
   601  00EA  1301               	bcf	(1038/8)^080h,(1038)&7	;volatile
   602  00EB  28EC               	goto	l67
   603                           opt subtitle "HI-TECH Software Omniscient Code Generator (Lite mode) build 49521"
   604                           
   605  00EC                     l602:	
   606                           opt subtitle "HI-TECH Software Omniscient Code Generator (Lite mode) build 49521"
   607                           
   608                           opt pagewidth 120
   609  00EC                     l67:	
   610  00EC  0008               	return
   611                           opt subtitle "HI-TECH Software Omniscient Code Generator (Lite mode) build 49521"
   612                           
   613  00ED                     	__end_of_config:
   614                           opt subtitle "HI-TECH Software Omniscient Code Generator (Lite mode) build 49521"
   615                           
   616                           opt pagewidth 120
   617                           
   618                           	opt lm
   619                           
   620                           	processor	12F675
   621                           clrc	macro
   622                           	bcf	3,0
   623                           	endm
   624                           clrz	macro
   625                           	bcf	3,2
   626                           	endm
   627                           setc	macro
   628                           	bsf	3,0
   629                           	endm
   630                           setz	macro
   631                           	bsf	3,2
   632                           	endm
   633                           skipc	macro
   634                           	btfss	3,0
   635                           	endm
   636                           skipz	macro
   637                           	btfss	3,2
   638                           	endm
   639                           skipnc	macro
   640                           	btfsc	3,0
   641                           	endm
   642                           skipnz	macro
   643                           	btfsc	3,2
   644                           	endm
   645                           indf	equ	0
   646                           indf0	equ	0
   647                           pc	equ	2
   648                           pcl	equ	2
   649  0116                     __ptext135:	;psect for function _start
   650                           opt subtitle "HI-TECH Software Omniscient Code Generator (Lite mode) build 49521"
   651                           
   652                           opt pagewidth 120
   653                           
   654  0005                     	__size_of_start	equ	__end_of_start-_start
   655                           opt subtitle "HI-TECH Software Omniscient Code Generator (Lite mode) build 49521"
   656  0116                     _start:	
   657                           opt subtitle "HI-TECH Software Omniscient Code Generator (Lite mode) build 49521"
   658                           
   659                           opt pagewidth 120
   660                           
   661  0116                     l604:	
   662                           opt subtitle "HI-TECH Software Omniscient Code Generator (Lite mode) build 49521"
   663  0116  2120               	fcall	_stop
   664                           opt subtitle "HI-TECH Software Omniscient Code Generator (Lite mode) build 49521"
   665                           
   666  0117  20ED               	fcall	_reset
   667                           opt subtitle "HI-TECH Software Omniscient Code Generator (Lite mode) build 49521"
   668                           
   669  0118                     l606:	
   670                           opt subtitle "HI-TECH Software Omniscient Code Generator (Lite mode) build 49521"
   671  0118  1283               	bcf	status, 5	;RP0=0, select bank0
   672  0119  1410               	bsf	(128/8),(128)&7	;volatile
   673                           opt subtitle "HI-TECH Software Omniscient Code Generator (Lite mode) build 49521"
   674                           
   675  011A                     l79:	
   676  011A  0008               	return
   677                           opt subtitle "HI-TECH Software Omniscient Code Generator (Lite mode) build 49521"
   678                           
   679  011B                     	__end_of_start:
   680                           opt subtitle "HI-TECH Software Omniscient Code Generator (Lite mode) build 49521"
   681                           
   682                           opt pagewidth 120
   683                           
   684                           	opt lm
   685                           
   686                           	processor	12F675
   687                           clrc	macro
   688                           	bcf	3,0
   689                           	endm
   690                           clrz	macro
   691                           	bcf	3,2
   692                           	endm
   693                           setc	macro
   694                           	bsf	3,0
   695                           	endm
   696                           setz	macro
   697                           	bsf	3,2
   698                           	endm
   699                           skipc	macro
   700                           	btfss	3,0
   701                           	endm
   702                           skipz	macro
   703                           	btfss	3,2
   704                           	endm
   705                           skipnc	macro
   706                           	btfsc	3,0
   707                           	endm
   708                           skipnz	macro
   709                           	btfsc	3,2
   710                           	endm
   711                           indf	equ	0
   712                           indf0	equ	0
   713                           pc	equ	2
   714  0126                     __ptext136:	;psect for function _idle_loop
   715                           opt subtitle "HI-TECH Software Omniscient Code Generator (Lite mode) build 49521"
   716                           
   717                           opt pagewidth 120
   718                           
   719  0002                     	__size_of_idle_loop	equ	__end_of_idle_loop-_idle_loop
   720                           opt subtitle "HI-TECH Software Omniscient Code Generator (Lite mode) build 49521"
   721  0126                     _idle_loop:	
   722                           opt subtitle "HI-TECH Software Omniscient Code Generator (Lite mode) build 49521"
   723                           
   724                           opt pagewidth 120
   725                           
   726                           	opt lm
   727  0126                     l88:	
   728                           opt subtitle "HI-TECH Software Omniscient Code Generator (Lite mode) build 49521"
   729  0126                     l89:	
   730  0126  2926               	goto	l88
   731                           opt subtitle "HI-TECH Software Omniscient Code Generator (Lite mode) build 49521"
   732  0127                     l90:	
   733                           opt subtitle "HI-TECH Software Omniscient Code Generator (Lite mode) build 49521"
   734                           
   735  0127                     l91:	
   736  0127  0008               	return
   737                           opt subtitle "HI-TECH Software Omniscient Code Generator (Lite mode) build 49521"
   738                           
   739  0128                     	__end_of_idle_loop:
   740                           opt subtitle "HI-TECH Software Omniscient Code Generator (Lite mode) build 49521"
   741                           
   742                           opt pagewidth 120
   743                           
   744                           	opt lm
   745                           
   746                           	processor	12F675
   747                           clrc	macro
   748                           	bcf	3,0
   749                           	endm
   750                           clrz	macro
   751                           	bcf	3,2
   752                           	endm
   753                           setc	macro
   754                           	bsf	3,0
   755                           	endm
   756                           setz	macro
   757                           	bsf	3,2
   758                           	endm
   759                           skipc	macro
   760                           	btfss	3,0
   761                           	endm
   762                           skipz	macro
   763                           	btfss	3,2
   764                           	endm
   765                           skipnc	macro
   766                           	btfsc	3,0
   767                           	endm
   768                           skipnz	macro
   769                           	btfsc	3,2
   770                           	endm
   771                           indf	equ	0
   772                           indf0	equ	0
   773                           pc	equ	2
   774  0120                     __ptext137:	;psect for function _stop
   775                           opt subtitle "HI-TECH Software Omniscient Code Generator (Lite mode) build 49521"
   776                           
   777                           opt pagewidth 120
   778                           
   779  0003                     	__size_of_stop	equ	__end_of_stop-_stop
   780                           opt subtitle "HI-TECH Software Omniscient Code Generator (Lite mode) build 49521"
   781  0120                     _stop:	
   782                           opt subtitle "HI-TECH Software Omniscient Code Generator (Lite mode) build 49521"
   783                           
   784                           opt pagewidth 120
   785                           
   786  0120                     l618:	
   787                           opt subtitle "HI-TECH Software Omniscient Code Generator (Lite mode) build 49521"
   788  0120  1283               	bcf	status, 5	;RP0=0, select bank0
   789  0121  1010               	bcf	(128/8),(128)&7	;volatile
   790                           opt subtitle "HI-TECH Software Omniscient Code Generator (Lite mode) build 49521"
   791                           
   792  0122                     l82:	
   793  0122  0008               	return
   794                           opt subtitle "HI-TECH Software Omniscient Code Generator (Lite mode) build 49521"
   795                           
   796  0123                     	__end_of_stop:
   797                           opt subtitle "HI-TECH Software Omniscient Code Generator (Lite mode) build 49521"
   798                           
   799                           opt pagewidth 120
   800                           
   801                           	opt lm
   802                           
   803                           	processor	12F675
   804                           clrc	macro
   805                           	bcf	3,0
   806                           	endm
   807                           clrz	macro
   808                           	bcf	3,2
   809                           	endm
   810                           setc	macro
   811                           	bsf	3,0
   812                           	endm
   813                           setz	macro
   814                           	bsf	3,2
   815                           	endm
   816                           skipc	macro
   817                           	btfss	3,0
   818                           	endm
   819                           skipz	macro
   820                           	btfss	3,2
   821                           	endm
   822                           skipnc	macro
   823                           	btfsc	3,0
   824                           	endm
   825                           skipnz	macro
   826                           	btfsc	3,2
   827                           	endm
   828                           indf	equ	0
   829                           indf0	equ	0
   830                           pc	equ	2
   831  00ED                     __ptext138:	;psect for function _reset
   832                           opt subtitle "HI-TECH Software Omniscient Code Generator (Lite mode) build 49521"
   833                           
   834                           opt pagewidth 120
   835                           
   836  000E                     	__size_of_reset	equ	__end_of_reset-_reset
   837                           opt subtitle "HI-TECH Software Omniscient Code Generator (Lite mode) build 49521"
   838  00ED                     _reset:	
   839                           opt subtitle "HI-TECH Software Omniscient Code Generator (Lite mode) build 49521"
   840                           
   841                           opt pagewidth 120
   842                           
   843  00ED                     l620:	
   844                           opt subtitle "HI-TECH Software Omniscient Code Generator (Lite mode) build 49521"
   845  00ED  120B               	bcf	(92/8),(92)&7	;volatile
   846                           opt subtitle "HI-TECH Software Omniscient Code Generator (Lite mode) build 49521"
   847                           
   848  00EE  1283               	bcf	status, 5	;RP0=0, select bank0
   849  00EF  1010               	bcf	(128/8),(128)&7	;volatile
   850                           opt subtitle "HI-TECH Software Omniscient Code Generator (Lite mode) build 49521"
   851                           
   852  00F0                     l622:	
   853                           opt subtitle "HI-TECH Software Omniscient Code Generator (Lite mode) build 49521"
   854  00F0  018E               	clrf	(14)	;volatile
   855  00F1  018F               	clrf	(14+1)	;volatile
   856                           opt subtitle "HI-TECH Software Omniscient Code Generator (Lite mode) build 49521"
   857                           
   858  00F2                     l624:	
   859                           opt subtitle "HI-TECH Software Omniscient Code Generator (Lite mode) build 49521"
   860  00F2  3000               	movlw	0
   861  00F3  00AD               	movwf	(_count+3)
   862  00F4  3000               	movlw	0
   863  00F5  00AC               	movwf	(_count+2)
   864  00F6  3000               	movlw	0
   865  00F7  00AB               	movwf	(_count+1)
   866  00F8  3000               	movlw	0
   867  00F9  00AA               	movwf	(_count)
   868                           opt subtitle "HI-TECH Software Omniscient Code Generator (Lite mode) build 49521"
   869                           
   870                           opt pagewidth 120
   871  00FA                     l85:	
   872  00FA  0008               	return
   873                           opt subtitle "HI-TECH Software Omniscient Code Generator (Lite mode) build 49521"
   874                           
   875  00FB                     	__end_of_reset:
   876                           opt subtitle "HI-TECH Software Omniscient Code Generator (Lite mode) build 49521"
   877                           
   878                           opt pagewidth 120
   879                           
   880                           	opt lm
   881                           
   882                           	processor	12F675
   883                           clrc	macro
   884                           	bcf	3,0
   885                           	endm
   886                           clrz	macro
   887                           	bcf	3,2
   888                           	endm
   889                           setc	macro
   890                           	bsf	3,0
   891                           	endm
   892                           setz	macro
   893                           	bsf	3,2
   894                           	endm
   895                           skipc	macro
   896                           	btfss	3,0
   897                           	endm
   898                           skipz	macro
   899                           	btfss	3,2
   900                           	endm
   901                           skipnc	macro
   902                           	btfsc	3,0
   903                           	endm
   904                           skipnz	macro
   905                           	btfsc	3,2
   906                           	endm
   907                           indf	equ	0
   908                           indf0	equ	0
   909                           pc	equ	2
   910                           pcl	equ	2
   911                           status	equ	3
   912                           fsr	equ	4
   913                           fsr0	equ	4
   914  0014                     __ptext139:	;psect for function _ISR
   915                           opt subtitle "HI-TECH Software Omniscient Code Generator (Lite mode) build 49521"
   916                           
   917                           opt pagewidth 120
   918                           
   919  0097                     	__size_of_ISR	equ	__end_of_ISR-_ISR
   920                           opt subtitle "HI-TECH Software Omniscient Code Generator (Lite mode) build 49521"
   921  0014                     _ISR:	
   922                           opt subtitle "HI-TECH Software Omniscient Code Generator (Lite mode) build 49521"
   923                           
   924                           opt pagewidth 120
   925                           
   926  0004                     __pintentry:
   927                           opt subtitle "HI-TECH Software Omniscient Code Generator (Lite mode) build 49521"
   928  0004                     interrupt_function:
   929                           opt subtitle "HI-TECH Software Omniscient Code Generator (Lite mode) build 49521"
   930  0000                     	saved_w	set	btemp+0
   931  0004  0080               	movwf	saved_w
   932  0005  0E03               	swapf	status,w
   933  0006  1283               	bcf	status, 5	;RP0=0, select bank0
   934  0007  00A2               	movwf	(??_ISR+0)
   935  0008  0804               	movf	fsr0,w
   936  0009  00A3               	movwf	(??_ISR+1)
   937  000A  080A               	movf	pclath,w
   938  000B  00A4               	movwf	(??_ISR+2)
   939  000C  0801               	movf	btemp+1,w
   940  000D  00A5               	movwf	(??_ISR+3)
   941  000E  2814               	ljmp	_ISR
   942                           opt subtitle "HI-TECH Software Omniscient Code Generator (Lite mode) build 49521"
   943                           
   944                           opt pagewidth 120
   945  0014                     i1l654:	
   946                           opt subtitle "HI-TECH Software Omniscient Code Generator (Lite mode) build 49521"
   947  0014  1683               	bsf	status, 5	;RP0=1, select bank1
   948  0015  1C0C               	btfss	(1120/8)^080h,(1120)&7	;volatile
   949  0016  2818               	goto	u2_21
   950  0017  2819               	goto	u2_20
   951  0018                     u2_21:
   952  0018  288B               	goto	i1l682
   953  0019                     u2_20:
   954                           opt subtitle "HI-TECH Software Omniscient Code Generator (Lite mode) build 49521"
   955  0019                     i1l656:	
   956  0019  1283               	bcf	status, 5	;RP0=0, select bank0
   957  001A  1C0C               	btfss	(96/8),(96)&7	;volatile
   958  001B  281D               	goto	u3_21
   959  001C  281E               	goto	u3_20
   960  001D                     u3_21:
   961  001D  288B               	goto	i1l682
   962  001E                     u3_20:
   963                           opt subtitle "HI-TECH Software Omniscient Code Generator (Lite mode) build 49521"
   964                           
   965  001E                     i1l658:	
   966                           opt subtitle "HI-TECH Software Omniscient Code Generator (Lite mode) build 49521"
   967                           
   968  001E  100C               	bcf	(96/8),(96)&7	;volatile
   969                           opt subtitle "HI-TECH Software Omniscient Code Generator (Lite mode) build 49521"
   970                           
   971  001F  1010               	bcf	(128/8),(128)&7	;volatile
   972                           opt subtitle "HI-TECH Software Omniscient Code Generator (Lite mode) build 49521"
   973                           
   974  0020                     i1l660:	
   975                           opt subtitle "HI-TECH Software Omniscient Code Generator (Lite mode) build 49521"
   976  0020  3001               	movlw	01h
   977  0021  07AA               	addwf	(_count),f
   978  0022  3000               	movlw	0
   979  0023  1803               	skipnc
   980  0024  3001               movlw 1
   981  0025  07AB               	addwf	(_count+1),f
   982  0026  3000               	movlw	0
   983  0027  1803               	skipnc
   984  0028  3001               movlw 1
   985  0029  07AC               	addwf	(_count+2),f
   986  002A  3000               	movlw	0
   987  002B  1803               	skipnc
   988  002C  3001               movlw 1
   989  002D  07AD               	addwf	(_count+3),f
   990  002E  3000               	movlw	0
   991  002F  062D               	xorwf	((_count+3)),w
   992  0030  1D03               	skipz
   993  0031  283C               	goto	u4_25
   994  0032  3000               	movlw	0
   995  0033  062C               	xorwf	((_count+2)),w
   996  0034  1D03               	skipz
   997  0035  283C               	goto	u4_25
   998  0036  3000               	movlw	0
   999  0037  062B               	xorwf	((_count+1)),w
  1000  0038  1D03               	skipz
  1001  0039  283C               	goto	u4_25
  1002  003A  3001               	movlw	01h
  1003  003B  062A               	xorwf	((_count)),w
  1004  003C                     u4_25:
  1005  003C  1D03               	skipz
  1006  003D  283F               	goto	u4_21
  1007  003E  2840               	goto	u4_20
  1008  003F                     u4_21:
  1009  003F  2847               	goto	i1l666
  1010  0040                     u4_20:
  1011                           opt subtitle "HI-TECH Software Omniscient Code Generator (Lite mode) build 49521"
  1012                           
  1013  0040                     i1l662:	
  1014                           opt subtitle "HI-TECH Software Omniscient Code Generator (Lite mode) build 49521"
  1015                           
  1016  0040  309F               	movlw	high(09FFFh)
  1017  0041  008F               	movwf	(14+1)	;volatile
  1018  0042  30FF               	movlw	low(09FFFh)
  1019  0043  008E               	movwf	(14)	;volatile
  1020                           opt subtitle "HI-TECH Software Omniscient Code Generator (Lite mode) build 49521"
  1021                           
  1022  0044  1410               	bsf	(128/8),(128)&7	;volatile
  1023                           opt subtitle "HI-TECH Software Omniscient Code Generator (Lite mode) build 49521"
  1024                           
  1025  0045                     i1l664:	
  1026                           opt subtitle "HI-TECH Software Omniscient Code Generator (Lite mode) build 49521"
  1027  0045  2128               	fcall	i1_idle_loop
  1028                           opt subtitle "HI-TECH Software Omniscient Code Generator (Lite mode) build 49521"
  1029                           
  1030  0046  288B               	goto	i1l682
  1031                           opt subtitle "HI-TECH Software Omniscient Code Generator (Lite mode) build 49521"
  1032                           
  1033  0047                     i1l95:	
  1034                           opt subtitle "HI-TECH Software Omniscient Code Generator (Lite mode) build 49521"
  1035  0047                     i1l666:	
  1036                           opt subtitle "HI-TECH Software Omniscient Code Generator (Lite mode) build 49521"
  1037  0047  3001               	movlw	01h
  1038  0048  1283               	bcf	status, 5	;RP0=0, select bank0
  1039  0049  07AA               	addwf	(_count),f
  1040  004A  3000               	movlw	0
  1041  004B  1803               	skipnc
  1042  004C  3001               movlw 1
  1043  004D  07AB               	addwf	(_count+1),f
  1044  004E  3000               	movlw	0
  1045  004F  1803               	skipnc
  1046  0050  3001               movlw 1
  1047  0051  07AC               	addwf	(_count+2),f
  1048  0052  3000               	movlw	0
  1049  0053  1803               	skipnc
  1050  0054  3001               movlw 1
  1051  0055  07AD               	addwf	(_count+3),f
  1052  0056  3000               	movlw	0
  1053  0057  022D               	subwf	((_count+3)),w
  1054  0058  1D03               	skipz
  1055  0059  2864               	goto	u5_25
  1056  005A  3000               	movlw	0
  1057  005B  022C               	subwf	((_count+2)),w
  1058  005C  1D03               	skipz
  1059  005D  2864               	goto	u5_25
  1060  005E  3000               	movlw	0
  1061  005F  022B               	subwf	((_count+1)),w
  1062  0060  1D03               	skipz
  1063  0061  2864               	goto	u5_25
  1064  0062  3002               	movlw	02h
  1065  0063  022A               	subwf	((_count)),w
  1066  0064                     u5_25:
  1067  0064  1C03               	skipc
  1068  0065  2867               	goto	u5_21
  1069  0066  2868               	goto	u5_20
  1070  0067                     u5_21:
  1071  0067  286C               	goto	i1l674
  1072  0068                     u5_20:
  1073                           opt subtitle "HI-TECH Software Omniscient Code Generator (Lite mode) build 49521"
  1074                           
  1075  0068                     i1l668:	
  1076                           opt subtitle "HI-TECH Software Omniscient Code Generator (Lite mode) build 49521"
  1077                           
  1078  0068  2123               	fcall	i1_stop
  1079                           opt subtitle "HI-TECH Software Omniscient Code Generator (Lite mode) build 49521"
  1080                           
  1081  0069                     i1l670:	
  1082                           opt subtitle "HI-TECH Software Omniscient Code Generator (Lite mode) build 49521"
  1083  0069  20FB               	fcall	i1_reset
  1084                           opt subtitle "HI-TECH Software Omniscient Code Generator (Lite mode) build 49521"
  1085                           
  1086  006A                     i1l672:	
  1087                           opt subtitle "HI-TECH Software Omniscient Code Generator (Lite mode) build 49521"
  1088  006A  20AB               	fcall	_blink
  1089                           opt subtitle "HI-TECH Software Omniscient Code Generator (Lite mode) build 49521"
  1090                           
  1091  006B  288B               	goto	i1l682
  1092                           opt subtitle "HI-TECH Software Omniscient Code Generator (Lite mode) build 49521"
  1093                           
  1094  006C                     i1l97:	
  1095                           opt subtitle "HI-TECH Software Omniscient Code Generator (Lite mode) build 49521"
  1096  006C                     i1l674:	
  1097                           opt subtitle "HI-TECH Software Omniscient Code Generator (Lite mode) build 49521"
  1098  006C  3001               	movlw	01h
  1099  006D  1283               	bcf	status, 5	;RP0=0, select bank0
  1100  006E  07AA               	addwf	(_count),f
  1101  006F  3000               	movlw	0
  1102  0070  1803               	skipnc
  1103  0071  3001               movlw 1
  1104  0072  07AB               	addwf	(_count+1),f
  1105  0073  3000               	movlw	0
  1106  0074  1803               	skipnc
  1107  0075  3001               movlw 1
  1108  0076  07AC               	addwf	(_count+2),f
  1109  0077  3000               	movlw	0
  1110  0078  1803               	skipnc
  1111  0079  3001               movlw 1
  1112  007A  07AD               	addwf	(_count+3),f
  1113  007B  082D               	movf	((_count+3)),w
  1114  007C  042C               	iorwf	((_count+2)),w
  1115  007D  042B               	iorwf	((_count+1)),w
  1116  007E  042A               	iorwf	((_count)),w
  1117  007F  1D03               	skipz
  1118  0080  2882               	goto	u6_21
  1119  0081  2883               	goto	u6_20
  1120  0082                     u6_21:
  1121  0082  288B               	goto	i1l682
  1122  0083                     u6_20:
  1123                           opt subtitle "HI-TECH Software Omniscient Code Generator (Lite mode) build 49521"
  1124                           
  1125  0083                     i1l676:	
  1126                           opt subtitle "HI-TECH Software Omniscient Code Generator (Lite mode) build 49521"
  1127                           
  1128  0083  018E               	clrf	(14)	;volatile
  1129  0084  018F               	clrf	(14+1)	;volatile
  1130                           opt subtitle "HI-TECH Software Omniscient Code Generator (Lite mode) build 49521"
  1131                           
  1132  0085                     i1l678:	
  1133                           opt subtitle "HI-TECH Software Omniscient Code Generator (Lite mode) build 49521"
  1134  0085  1410               	bsf	(128/8),(128)&7	;volatile
  1135                           opt subtitle "HI-TECH Software Omniscient Code Generator (Lite mode) build 49521"
  1136                           
  1137  0086                     i1l680:	
  1138                           opt subtitle "HI-TECH Software Omniscient Code Generator (Lite mode) build 49521"
  1139  0086  2128               	fcall	i1_idle_loop
  1140  0087  288B               	goto	i1l682
  1141                           opt subtitle "HI-TECH Software Omniscient Code Generator (Lite mode) build 49521"
  1142                           
  1143  0088                     i1l99:	
  1144  0088  288B               	goto	i1l682
  1145                           opt subtitle "HI-TECH Software Omniscient Code Generator (Lite mode) build 49521"
  1146                           
  1147  0089                     i1l98:	
  1148  0089  288B               	goto	i1l682
  1149                           opt subtitle "HI-TECH Software Omniscient Code Generator (Lite mode) build 49521"
  1150  008A                     i1l96:	
  1151  008A  288B               	goto	i1l682
  1152                           opt subtitle "HI-TECH Software Omniscient Code Generator (Lite mode) build 49521"
  1153  008B                     i1l94:	
  1154                           opt subtitle "HI-TECH Software Omniscient Code Generator (Lite mode) build 49521"
  1155                           
  1156  008B                     i1l682:	
  1157                           opt subtitle "HI-TECH Software Omniscient Code Generator (Lite mode) build 49521"
  1158                           
  1159                           opt pagewidth 120
  1160  008B  1C8B               	btfss	(89/8),(89)&7	;volatile
  1161  008C  288E               	goto	u7_21
  1162  008D  288F               	goto	u7_20
  1163  008E                     u7_21:
  1164  008E  289F               	goto	i1l103
  1165  008F                     u7_20:
  1166                           opt subtitle "HI-TECH Software Omniscient Code Generator (Lite mode) build 49521"
  1167  008F                     i1l684:	
  1168  008F  1E0B               	btfss	(92/8),(92)&7	;volatile
  1169  0090  2892               	goto	u8_21
  1170  0091  2893               	goto	u8_20
  1171  0092                     u8_21:
  1172  0092  289F               	goto	i1l103
  1173  0093                     u8_20:
  1174                           opt subtitle "HI-TECH Software Omniscient Code Generator (Lite mode) build 49521"
  1175                           
  1176  0093                     i1l686:	
  1177                           opt subtitle "HI-TECH Software Omniscient Code Generator (Lite mode) build 49521"
  1178                           
  1179  0093  108B               	bcf	(89/8),(89)&7	;volatile
  1180                           opt subtitle "HI-TECH Software Omniscient Code Generator (Lite mode) build 49521"
  1181                           
  1182  0094  1283               	bcf	status, 5	;RP0=0, select bank0
  1183  0095  1C10               	btfss	(128/8),(128)&7	;volatile
  1184  0096  2898               	goto	u9_21
  1185  0097  2899               	goto	u9_20
  1186  0098                     u9_21:
  1187  0098  289B               	goto	i1l690
  1188  0099                     u9_20:
  1189                           opt subtitle "HI-TECH Software Omniscient Code Generator (Lite mode) build 49521"
  1190                           
  1191  0099                     i1l688:	
  1192                           opt subtitle "HI-TECH Software Omniscient Code Generator (Lite mode) build 49521"
  1193                           
  1194  0099  2128               	fcall	i1_idle_loop
  1195                           opt subtitle "HI-TECH Software Omniscient Code Generator (Lite mode) build 49521"
  1196                           
  1197  009A  289F               	goto	i1l103
  1198                           opt subtitle "HI-TECH Software Omniscient Code Generator (Lite mode) build 49521"
  1199                           
  1200  009B                     i1l101:	
  1201                           opt subtitle "HI-TECH Software Omniscient Code Generator (Lite mode) build 49521"
  1202                           
  1203  009B                     i1l690:	
  1204                           opt subtitle "HI-TECH Software Omniscient Code Generator (Lite mode) build 49521"
  1205                           
  1206                           opt pagewidth 120
  1207  009B  211B               	fcall	i1_start
  1208                           opt subtitle "HI-TECH Software Omniscient Code Generator (Lite mode) build 49521"
  1209                           
  1210  009C                     i1l692:	
  1211                           opt subtitle "HI-TECH Software Omniscient Code Generator (Lite mode) build 49521"
  1212  009C  2128               	fcall	i1_idle_loop
  1213  009D  289F               	goto	i1l103
  1214                           opt subtitle "HI-TECH Software Omniscient Code Generator (Lite mode) build 49521"
  1215                           
  1216  009E                     i1l102:	
  1217  009E  289F               	goto	i1l103
  1218                           opt subtitle "HI-TECH Software Omniscient Code Generator (Lite mode) build 49521"
  1219                           
  1220  009F                     i1l100:	
  1221                           opt subtitle "HI-TECH Software Omniscient Code Generator (Lite mode) build 49521"
  1222                           
  1223  009F                     i1l103:	
  1224  009F  1283               	bcf	status, 5	;RP0=0, select bank0
  1225  00A0  0825               	movf	(??_ISR+3),w
  1226  00A1  0081               	movwf	btemp+1
  1227  00A2  0824               	movf	(??_ISR+2),w
  1228  00A3  008A               	movwf	pclath
  1229  00A4  0823               	movf	(??_ISR+1),w
  1230  00A5  0084               	movwf	fsr0
  1231  00A6  0E22               	swapf	(??_ISR+0)^00h,w
  1232  00A7  0083               	movwf	status
  1233  00A8  0E80               	swapf	saved_w,f
  1234  00A9  0E00               	swapf	saved_w,w
  1235  00AA  0009               	retfie
  1236                           opt subtitle "HI-TECH Software Omniscient Code Generator (Lite mode) build 49521"
  1237                           
  1238  00AB                     	__end_of_ISR:
  1239                           opt subtitle "HI-TECH Software Omniscient Code Generator (Lite mode) build 49521"
  1240                           
  1241                           opt pagewidth 120
  1242                           
  1243                           	opt lm
  1244                           
  1245                           	processor	12F675
  1246                           clrc	macro
  1247                           	bcf	3,0
  1248                           	endm
  1249                           clrz	macro
  1250                           	bcf	3,2
  1251                           	endm
  1252                           setc	macro
  1253                           	bsf	3,0
  1254                           	endm
  1255                           setz	macro
  1256                           	bsf	3,2
  1257                           	endm
  1258                           skipc	macro
  1259                           	btfss	3,0
  1260                           	endm
  1261                           skipz	macro
  1262                           	btfss	3,2
  1263                           	endm
  1264                           skipnc	macro
  1265                           	btfsc	3,0
  1266                           	endm
  1267                           skipnz	macro
  1268                           	btfsc	3,2
  1269                           	endm
  1270                           indf	equ	0
  1271                           indf0	equ	0
  1272  00AB                     __ptext140:	;psect for function _blink
  1273                           opt subtitle "HI-TECH Software Omniscient Code Generator (Lite mode) build 49521"
  1274                           
  1275                           opt pagewidth 120
  1276                           
  1277  0024                     	__size_of_blink	equ	__end_of_blink-_blink
  1278                           opt subtitle "HI-TECH Software Omniscient Code Generator (Lite mode) build 49521"
  1279  00AB                     _blink:	
  1280                           opt subtitle "HI-TECH Software Omniscient Code Generator (Lite mode) build 49521"
  1281                           
  1282                           opt pagewidth 120
  1283                           
  1284  00AB                     i1l608:	
  1285                           opt subtitle "HI-TECH Software Omniscient Code Generator (Lite mode) build 49521"
  1286  00AB  160B               	bsf	(92/8),(92)&7	;volatile
  1287                           opt subtitle "HI-TECH Software Omniscient Code Generator (Lite mode) build 49521"
  1288                           
  1289  00AC                     i1l610:	
  1290                           opt subtitle "HI-TECH Software Omniscient Code Generator (Lite mode) build 49521"
  1291  00AC  1283               	bcf	status, 5	;RP0=0, select bank0
  1292  00AD  01A0               	clrf	(blink@tmp)
  1293  00AE  01A1               	clrf	(blink@tmp+1)
  1294  00AF  28B2               	goto	i1l612
  1295                           opt subtitle "HI-TECH Software Omniscient Code Generator (Lite mode) build 49521"
  1296                           
  1297                           opt pagewidth 120
  1298  00B0                     i1l70:	
  1299                           opt subtitle "HI-TECH Software Omniscient Code Generator (Lite mode) build 49521"
  1300                           
  1301                           opt pagewidth 120
  1302  00B0  28B2               	goto	i1l612
  1303                           opt subtitle "HI-TECH Software Omniscient Code Generator (Lite mode) build 49521"
  1304  00B1                     i1l72:	
  1305  00B1  28B2               	goto	i1l612
  1306                           opt subtitle "HI-TECH Software Omniscient Code Generator (Lite mode) build 49521"
  1307  00B2                     i1l71:	
  1308                           opt subtitle "HI-TECH Software Omniscient Code Generator (Lite mode) build 49521"
  1309  00B2                     i1l612:	
  1310  00B2  3001               	movlw	low(01h)
  1311  00B3  1283               	bcf	status, 5	;RP0=0, select bank0
  1312  00B4  07A0               	addwf	(blink@tmp),f
  1313  00B5  1803               	skipnc
  1314  00B6  0AA1               	incf	(blink@tmp+1),f
  1315  00B7  3000               	movlw	high(01h)
  1316  00B8  07A1               	addwf	(blink@tmp+1),f
  1317  00B9  0821               	movf	((blink@tmp+1)),w
  1318  00BA  3A80               	xorlw	80h
  1319  00BB  0080               	movwf	btemp+0
  1320  00BC  3080               	movlw	(high(014h))^80h
  1321  00BD  0200               	subwf	btemp+0,w
  1322  00BE  1D03               	skipz
  1323  00BF  28C2               	goto	u1_25
  1324  00C0  3014               	movlw	low(014h)
  1325  00C1  0220               	subwf	((blink@tmp)),w
  1326  00C2                     u1_25:
  1327                           opt subtitle "HI-TECH Software Omniscient Code Generator (Lite mode) build 49521"
  1328  00C2  1C03               	skipc
  1329  00C3  28C5               	goto	u1_21
  1330  00C4  28C6               	goto	u1_20
  1331  00C5                     u1_21:
  1332  00C5  28B2               	goto	i1l612
  1333  00C6                     u1_20:
  1334  00C6  28C7               	goto	i1l614
  1335                           opt subtitle "HI-TECH Software Omniscient Code Generator (Lite mode) build 49521"
  1336  00C7                     i1l73:	
  1337                           opt subtitle "HI-TECH Software Omniscient Code Generator (Lite mode) build 49521"
  1338                           
  1339  00C7                     i1l614:	
  1340                           opt subtitle "HI-TECH Software Omniscient Code Generator (Lite mode) build 49521"
  1341  00C7  3002               	movlw	1<<((41)&7)
  1342  00C8  1283               	bcf	status, 5	;RP0=0, select bank0
  1343  00C9  0685               	xorwf	((41)/8),f
  1344                           opt subtitle "HI-TECH Software Omniscient Code Generator (Lite mode) build 49521"
  1345                           
  1346  00CA                     i1l616:	
  1347                           opt subtitle "HI-TECH Software Omniscient Code Generator (Lite mode) build 49521"
  1348  00CA  01A0               	clrf	(blink@tmp)
  1349  00CB  01A1               	clrf	(blink@tmp+1)
  1350  00CC  28B2               	goto	i1l612
  1351                           opt subtitle "HI-TECH Software Omniscient Code Generator (Lite mode) build 49521"
  1352                           
  1353  00CD                     i1l74:	
  1354                           opt subtitle "HI-TECH Software Omniscient Code Generator (Lite mode) build 49521"
  1355  00CD  28B2               	goto	i1l612
  1356                           opt subtitle "HI-TECH Software Omniscient Code Generator (Lite mode) build 49521"
  1357  00CE                     i1l75:	
  1358                           opt subtitle "HI-TECH Software Omniscient Code Generator (Lite mode) build 49521"
  1359                           
  1360  00CE                     i1l76:	
  1361  00CE  0008               	return
  1362                           opt subtitle "HI-TECH Software Omniscient Code Generator (Lite mode) build 49521"
  1363                           
  1364  00CF                     	__end_of_blink:
  1365                           opt subtitle "HI-TECH Software Omniscient Code Generator (Lite mode) build 49521"
  1366                           
  1367                           opt pagewidth 120
  1368                           
  1369                           	opt lm
  1370                           
  1371                           	processor	12F675
  1372                           clrc	macro
  1373                           	bcf	3,0
  1374                           	endm
  1375                           clrz	macro
  1376                           	bcf	3,2
  1377                           	endm
  1378                           setc	macro
  1379                           	bsf	3,0
  1380                           	endm
  1381                           setz	macro
  1382                           	bsf	3,2
  1383                           	endm
  1384                           skipc	macro
  1385                           	btfss	3,0
  1386                           	endm
  1387                           skipz	macro
  1388                           	btfss	3,2
  1389                           	endm
  1390                           skipnc	macro
  1391                           	btfsc	3,0
  1392                           	endm
  1393                           skipnz	macro
  1394                           	btfsc	3,2
  1395                           	endm
  1396                           indf	equ	0
  1397                           indf0	equ	0
  1398                           pc	equ	2
  1399                           pcl	equ	2
  1400  011B                     __ptext141:	;psect for function i1_start
  1401                           opt subtitle "HI-TECH Software Omniscient Code Generator (Lite mode) build 49521"
  1402                           
  1403                           opt pagewidth 120
  1404                           
  1405  0005                     	__size_ofi1_start	equ	__end_ofi1_start-i1_start
  1406                           opt subtitle "HI-TECH Software Omniscient Code Generator (Lite mode) build 49521"
  1407  011B                     i1_start:	
  1408                           opt subtitle "HI-TECH Software Omniscient Code Generator (Lite mode) build 49521"
  1409                           
  1410                           opt pagewidth 120
  1411                           
  1412  011B                     i1l648:	
  1413                           opt subtitle "HI-TECH Software Omniscient Code Generator (Lite mode) build 49521"
  1414  011B  2123               	fcall	i1_stop
  1415                           opt subtitle "HI-TECH Software Omniscient Code Generator (Lite mode) build 49521"
  1416                           
  1417  011C                     i1l650:	
  1418                           opt subtitle "HI-TECH Software Omniscient Code Generator (Lite mode) build 49521"
  1419  011C  20FB               	fcall	i1_reset
  1420                           opt subtitle "HI-TECH Software Omniscient Code Generator (Lite mode) build 49521"
  1421                           
  1422  011D                     i1l652:	
  1423                           opt subtitle "HI-TECH Software Omniscient Code Generator (Lite mode) build 49521"
  1424  011D  1283               	bcf	status, 5	;RP0=0, select bank0
  1425  011E  1410               	bsf	(128/8),(128)&7	;volatile
  1426                           opt subtitle "HI-TECH Software Omniscient Code Generator (Lite mode) build 49521"
  1427                           
  1428  011F                     i1l79:	
  1429  011F  0008               	return
  1430                           opt subtitle "HI-TECH Software Omniscient Code Generator (Lite mode) build 49521"
  1431                           
  1432  0120                     	__end_ofi1_start:
  1433                           opt subtitle "HI-TECH Software Omniscient Code Generator (Lite mode) build 49521"
  1434                           
  1435                           opt pagewidth 120
  1436                           
  1437                           	opt lm
  1438                           
  1439                           	processor	12F675
  1440                           clrc	macro
  1441                           	bcf	3,0
  1442                           	endm
  1443                           clrz	macro
  1444                           	bcf	3,2
  1445                           	endm
  1446                           setc	macro
  1447                           	bsf	3,0
  1448                           	endm
  1449                           setz	macro
  1450                           	bsf	3,2
  1451                           	endm
  1452                           skipc	macro
  1453                           	btfss	3,0
  1454                           	endm
  1455                           skipz	macro
  1456                           	btfss	3,2
  1457                           	endm
  1458                           skipnc	macro
  1459                           	btfsc	3,0
  1460                           	endm
  1461                           skipnz	macro
  1462                           	btfsc	3,2
  1463                           	endm
  1464                           indf	equ	0
  1465                           indf0	equ	0
  1466                           pc	equ	2
  1467  0123                     __ptext142:	;psect for function i1_stop
  1468                           opt subtitle "HI-TECH Software Omniscient Code Generator (Lite mode) build 49521"
  1469                           
  1470                           opt pagewidth 120
  1471                           
  1472  0003                     	__size_ofi1_stop	equ	__end_ofi1_stop-i1_stop
  1473                           opt subtitle "HI-TECH Software Omniscient Code Generator (Lite mode) build 49521"
  1474  0123                     i1_stop:	
  1475                           opt subtitle "HI-TECH Software Omniscient Code Generator (Lite mode) build 49521"
  1476                           
  1477                           opt pagewidth 120
  1478                           
  1479  0123                     i1l628:	
  1480                           opt subtitle "HI-TECH Software Omniscient Code Generator (Lite mode) build 49521"
  1481  0123  1283               	bcf	status, 5	;RP0=0, select bank0
  1482  0124  1010               	bcf	(128/8),(128)&7	;volatile
  1483                           opt subtitle "HI-TECH Software Omniscient Code Generator (Lite mode) build 49521"
  1484                           
  1485  0125                     i1l82:	
  1486  0125  0008               	return
  1487                           opt subtitle "HI-TECH Software Omniscient Code Generator (Lite mode) build 49521"
  1488                           
  1489  0126                     	__end_ofi1_stop:
  1490                           opt subtitle "HI-TECH Software Omniscient Code Generator (Lite mode) build 49521"
  1491                           
  1492                           opt pagewidth 120
  1493                           
  1494                           	opt lm
  1495                           
  1496                           	processor	12F675
  1497                           clrc	macro
  1498                           	bcf	3,0
  1499                           	endm
  1500                           clrz	macro
  1501                           	bcf	3,2
  1502                           	endm
  1503                           setc	macro
  1504                           	bsf	3,0
  1505                           	endm
  1506                           setz	macro
  1507                           	bsf	3,2
  1508                           	endm
  1509                           skipc	macro
  1510                           	btfss	3,0
  1511                           	endm
  1512                           skipz	macro
  1513                           	btfss	3,2
  1514                           	endm
  1515                           skipnc	macro
  1516                           	btfsc	3,0
  1517                           	endm
  1518                           skipnz	macro
  1519                           	btfsc	3,2
  1520                           	endm
  1521                           indf	equ	0
  1522                           indf0	equ	0
  1523  0128                     __ptext143:	;psect for function i1_idle_loop
  1524                           opt subtitle "HI-TECH Software Omniscient Code Generator (Lite mode) build 49521"
  1525                           
  1526                           opt pagewidth 120
  1527                           
  1528  0002                     	__size_ofi1_idle_loop	equ	__end_ofi1_idle_loop-i1_idle_loop
  1529                           opt subtitle "HI-TECH Software Omniscient Code Generator (Lite mode) build 49521"
  1530  0128                     i1_idle_loop:	
  1531                           opt subtitle "HI-TECH Software Omniscient Code Generator (Lite mode) build 49521"
  1532                           
  1533                           opt pagewidth 120
  1534                           
  1535                           	opt lm
  1536  0128                     i1l88:	
  1537                           opt subtitle "HI-TECH Software Omniscient Code Generator (Lite mode) build 49521"
  1538  0128                     i1l89:	
  1539  0128  2928               	goto	i1l88
  1540                           opt subtitle "HI-TECH Software Omniscient Code Generator (Lite mode) build 49521"
  1541  0129                     i1l90:	
  1542                           opt subtitle "HI-TECH Software Omniscient Code Generator (Lite mode) build 49521"
  1543                           
  1544  0129                     i1l91:	
  1545  0129  0008               	return
  1546                           opt subtitle "HI-TECH Software Omniscient Code Generator (Lite mode) build 49521"
  1547                           
  1548  012A                     	__end_ofi1_idle_loop:
  1549                           opt subtitle "HI-TECH Software Omniscient Code Generator (Lite mode) build 49521"
  1550                           
  1551                           opt pagewidth 120
  1552                           
  1553                           	opt lm
  1554                           
  1555                           	processor	12F675
  1556                           clrc	macro
  1557                           	bcf	3,0
  1558                           	endm
  1559                           clrz	macro
  1560                           	bcf	3,2
  1561                           	endm
  1562                           setc	macro
  1563                           	bsf	3,0
  1564                           	endm
  1565                           setz	macro
  1566                           	bsf	3,2
  1567                           	endm
  1568                           skipc	macro
  1569                           	btfss	3,0
  1570                           	endm
  1571                           skipz	macro
  1572                           	btfss	3,2
  1573                           	endm
  1574                           skipnc	macro
  1575                           	btfsc	3,0
  1576                           	endm
  1577                           skipnz	macro
  1578                           	btfsc	3,2
  1579                           	endm
  1580                           indf	equ	0
  1581                           indf0	equ	0
  1582                           pc	equ	2
  1583  00FB                     __ptext144:	;psect for function i1_reset
  1584                           opt subtitle "HI-TECH Software Omniscient Code Generator (Lite mode) build 49521"
  1585                           
  1586                           opt pagewidth 120
  1587                           
  1588  000E                     	__size_ofi1_reset	equ	__end_ofi1_reset-i1_reset
  1589                           opt subtitle "HI-TECH Software Omniscient Code Generator (Lite mode) build 49521"
  1590  00FB                     i1_reset:	
  1591                           opt subtitle "HI-TECH Software Omniscient Code Generator (Lite mode) build 49521"
  1592                           
  1593                           opt pagewidth 120
  1594                           
  1595  00FB                     i1l636:	
  1596                           opt subtitle "HI-TECH Software Omniscient Code Generator (Lite mode) build 49521"
  1597  00FB  120B               	bcf	(92/8),(92)&7	;volatile
  1598                           opt subtitle "HI-TECH Software Omniscient Code Generator (Lite mode) build 49521"
  1599                           
  1600  00FC  1283               	bcf	status, 5	;RP0=0, select bank0
  1601  00FD  1010               	bcf	(128/8),(128)&7	;volatile
  1602                           opt subtitle "HI-TECH Software Omniscient Code Generator (Lite mode) build 49521"
  1603                           
  1604  00FE                     i1l638:	
  1605                           opt subtitle "HI-TECH Software Omniscient Code Generator (Lite mode) build 49521"
  1606  00FE  018E               	clrf	(14)	;volatile
  1607  00FF  018F               	clrf	(14+1)	;volatile
  1608                           opt subtitle "HI-TECH Software Omniscient Code Generator (Lite mode) build 49521"
  1609                           
  1610  0100                     i1l640:	
  1611                           opt subtitle "HI-TECH Software Omniscient Code Generator (Lite mode) build 49521"
  1612  0100  3000               	movlw	0
  1613  0101  00AD               	movwf	(_count+3)
  1614  0102  3000               	movlw	0
  1615  0103  00AC               	movwf	(_count+2)
  1616  0104  3000               	movlw	0
  1617  0105  00AB               	movwf	(_count+1)
  1618  0106  3000               	movlw	0
  1619  0107  00AA               	movwf	(_count)
  1620                           opt subtitle "HI-TECH Software Omniscient Code Generator (Lite mode) build 49521"
  1621                           
  1622                           opt pagewidth 120
  1623  0108                     i1l85:	
  1624  0108  0008               	return
  1625                           opt subtitle "HI-TECH Software Omniscient Code Generator (Lite mode) build 49521"
  1626                           
  1627  0109                     	__end_ofi1_reset:
  1628                           opt subtitle "HI-TECH Software Omniscient Code Generator (Lite mode) build 49521"
  1629                           
  1630                           opt pagewidth 120
  1631  0000                     __ptext145:	;psect for function i1_reset
  1632                           opt subtitle "HI-TECH Software Omniscient Code Generator (Lite mode) build 49521"
  1633  0000                     	btemp set 00h
  1634                           opt subtitle "HI-TECH Software Omniscient Code Generator (Lite mode) build 49521"
  1635                           
  1636                           opt pagewidth 120
  1637  0000                     	wtemp0 set btemp


Data Sizes:
    Strings     0
    Constant    0
    Data        0
    BSS         4
    Persistent  0
    Stack       0

Auto Spaces:
    Space          Size  Autos    Used
    BANK0            52     10      14

Pointer List with Targets:

    None.

Critical Paths under _main in BANK0

    None.

Critical Paths under _ISR in BANK0

    _ISR->_blink

Call Graph Tables:

 ---------------------------------------------------------------------------------
 (Depth) Function   	        Calls       Base Space   Used Autos Params    Refs
 ---------------------------------------------------------------------------------
 (0) _main                                                 4     0      4       0
                                              6 BANK0      4     0      4
                             _config
                              _start
                          _idle_loop
 ---------------------------------------------------------------------------------
 (1) _config                                               0     0      0       0
 ---------------------------------------------------------------------------------
 (1) _start                                                0     0      0       0
                               _stop
                              _reset
 ---------------------------------------------------------------------------------
 (1) _idle_loop                                            0     0      0       0
 ---------------------------------------------------------------------------------
 (2) _stop                                                 0     0      0       0
 ---------------------------------------------------------------------------------
 (2) _reset                                                0     0      0       0
 ---------------------------------------------------------------------------------
 Estimated maximum stack depth 2
 ---------------------------------------------------------------------------------
 (Depth) Function   	        Calls       Base Space   Used Autos Params    Refs
 ---------------------------------------------------------------------------------
 (3) _ISR                                                  4     4      0      15
                                              2 BANK0      4     4      0
                        i1_idle_loop
                             i1_stop
                            i1_reset
                              _blink
                            i1_start
 ---------------------------------------------------------------------------------
 (4) _blink                                                2     2      0      15
                                              0 BANK0      2     2      0
 ---------------------------------------------------------------------------------
 (4) i1_start                                              0     0      0       0
                             i1_stop
                            i1_reset
 ---------------------------------------------------------------------------------
 (5) i1_stop                                               0     0      0       0
 ---------------------------------------------------------------------------------
 (4) i1_idle_loop                                          0     0      0       0
 ---------------------------------------------------------------------------------
 (5) i1_reset                                              0     0      0       0
 ---------------------------------------------------------------------------------
 Estimated maximum stack depth 5
 ---------------------------------------------------------------------------------

 Call Graph Graphs:

 _main (ROOT)
   _config
   _start
     _stop
     _reset
   _idle_loop

 _ISR (ROOT)
   i1_idle_loop
   i1_stop
   i1_reset
   _blink
   i1_start
     i1_stop
     i1_reset

 Address spaces:
Name               Size   Autos  Total    Cost      Usage
STACK                0      0       8       0        0.0%
EEDATA              80      0       0       0        0.0%
NULL                 0      0       0       0        0.0%
CODE                 0      0       0       0        0.0%
BITBANK0            34      0       0       1        0.0%
BITSFR0              0      0       0       1        0.0%
SFR0                 0      0       0       1        0.0%
BANK0               34      A       E       2       26.9%
BITSFR1              0      0       0       2        0.0%
SFR1                 0      0       0       2        0.0%
ABS                  0      0       E       3        0.0%
DATA                 0      0      16       4        0.0%


Microchip Technology PIC Macro Assembler V1.12 build 49521 
Symbol Table                                                                                   Tue Dec 11 19:32:25 2012

            __CFG_CP$OFF 0000                       l61 010A                       l62 010A  
                     l63 010B                       l64 010F                       l82 0122  
                     l90 0127                       l91 0127                       l67 00EC  
                     l85 00FA                       l79 011A                       l88 0126  
                     l89 0126                      l600 00EA                      l602 00EC  
                    l620 00ED                      l604 0116                      l622 00F0  
                    l606 0118                      l624 00F2                      l560 0109  
                    l618 0120                      l570 00D4                      l562 010B  
                    l580 00DC                      l572 00D5                      l564 010F  
                    l590 00E3                      l582 00DE                      l574 00D7  
                    l566 00CF                      l592 00E4                      l584 00DF  
                    l576 00D8                      l568 00D3                      l594 00E6  
                    l586 00E0                      l578 00D9                      l596 00E8  
                    l588 00E2                      l598 00E9                      _GIE 005F  
           __CFG_CPD$OFF 0000                      _ISR 0014                      _PSA 040B  
                    _WPU 0095                      fsr0 0004             __CFG_FOSC$HS 0000  
                   ?_ISR 0020                     _PEIE 005E                     _INTE 005C  
                   _INTF 0059                     i1l70 00B0                     i1l71 00B2  
                   i1l72 00B1                     i1l73 00C7                     i1l90 0129  
                   i1l82 0125                     i1l74 00CD                     i1l91 0129  
                   i1l75 00CE                     i1l76 00CE                     i1l85 0108  
                   i1l94 008B                     i1l79 011F                     i1l95 0047  
                   i1l88 0128                     i1l96 008A                     i1l89 0128  
                   i1l97 006C                     i1l98 0089                     i1l99 0088  
                   _TMR1 000E                     u1_20 00C6                     u1_21 00C5  
                   u1_25 00C2                     u2_20 0019                     u2_21 0018  
                   u3_20 001E                     u3_21 001D                     u4_20 0040  
                   u4_21 003F                     u4_25 003C                     u5_20 0068  
                   u5_21 0067                     u5_25 0064                     u6_20 0083  
                   u6_21 0082                     u7_20 008F                     u7_21 008E  
                   u8_20 0093                     u8_21 0092                     u9_20 0099  
                   u9_21 0098                     _nBOD 0470                     _nBOR 0470  
                   _nPOR 0471                     _main 0109                     btemp 0000  
                   _stop 0120                     start 000F          __end_ofi1_reset 0109  
        __end_ofi1_start 0120              i1_idle_loop 0128                    ??_ISR 0022  
                  ?_main 0026            __CFG_WDTE$OFF 0000                    _ANSEL 009F  
                  ?_stop 0020                    _GPIO1 0029                    i1l100 009F  
                  i1l101 009B                    i1l102 009E                    i1l103 009F  
                  i1l610 00AC                    i1l612 00B2                    i1l614 00C7  
                  i1l640 0100                    i1l616 00CA                    i1l608 00AB  
                  i1l650 011C                    i1l636 00FB                    i1l628 0123  
                  i1l652 011D                    i1l660 0020                    i1l638 00FE  
                  i1l670 0069                    i1l662 0040                    i1l654 0014  
                  i1l648 011B                    i1l680 0086                    i1l672 006A  
                  i1l664 0045                    i1l656 0019                    i1l690 009B  
                  i1l674 006C                    i1l666 0047                    i1l658 001E  
                  i1l682 008B                    i1l692 009C                    i1l684 008F  
                  i1l676 0083                    i1l668 0068                    i1l686 0093  
                  i1l678 0085                    i1l688 0099            __CFG_PWRTE$ON 0000  
                  _nGPPU 040F                    _blink 00AB                    _count 002A  
                  _reset 00ED                    _start 0116           __CFG_BOREN$OFF 0000  
                  pclath 000A                    status 0003                    wtemp0 0000  
        __initialization 0110             __end_of_main 0110             __end_of_stop 0123  
                 ??_main 002A                   ??_stop 0026                   ?_blink 0020  
                 ?_reset 0020                   ?_start 0020                   _INTEDG 040E  
              ??i1_reset 0020                ??i1_start 0020                   _TMR1GE 0086  
                 _TMR1IE 0460                   _TMR1IF 0060                   _TMR1CS 0081  
                 _TMR1ON 0080                   i1_stop 0123                   _config 00CF  
                 saved_w 0000  __end_of__initialization 0114            __end_of_blink 00CF  
          __end_of_reset 00FB            __end_of_start 011B       __size_of_idle_loop 0002  
                ??_blink 0020                  ??_reset 0026                  ??_start 0026  
             __pbssBANK0 002A                  ?i1_stop 0020             ?i1_idle_loop 0020  
             __pmaintext 0109               __pintentry 0004                  ?_config 0020  
                _T1CKPS0 0084                  _T1CKPS1 0085                  _TRISIO1 0429  
                _TRISIO2 042A                  i1_reset 00FB                  i1_start 011B  
        __size_ofi1_stop 0003        __end_of_idle_loop 0128          __size_of_config 001E  
           __size_of_ISR 0097     end_of_initialization 0114           __end_ofi1_stop 0126  
   __size_ofi1_idle_loop 0002           __end_of_config 00ED      start_initialization 0110  
            __end_of_ISR 00AB                 ??i1_stop 0020                 ??_config 0026  
          __pcstackBANK0 0020                 ?i1_reset 0020                 ?i1_start 0020  
              __ptext140 00AB                __ptext141 011B                __ptext133 0000  
              __ptext142 0123                __ptext134 00CF                __ptext143 0128  
              __ptext135 0116                __ptext144 00FB                __ptext136 0126  
              __ptext145 0000                __ptext137 0120                __ptext138 00ED  
              __ptext139 0014                _idle_loop 0126           __size_of_blink 0024  
         __size_of_reset 000E           __size_of_start 0005        interrupt_function 0004  
             ?_idle_loop 0020         __size_ofi1_reset 000E         __size_ofi1_start 0005  
          __size_of_main 0007            __size_of_stop 0003            ??i1_idle_loop 0020  
               blink@tmp 0020                 main@argc 0026                 main@argv 0028  
            ??_idle_loop 0026                 intlevel1 0000      __end_ofi1_idle_loop 012A  
